; Function Attrs: mustprogress null_pointer_is_valid sspstrong uwtable
define void @_ZN17Mtp3SummaryDialogC2ER7QWidgetR11CaptureFile(ptr noundef align 8 dereferenceable_or_null(152) %0, ptr noundef align 8 dereferenceable(40) %1, ptr noundef align 8 dereferenceable(48) %2) unnamed_addr #0 align 2 personality ptr @__gxx_personality_v0 {
  %4 = alloca %class.QString, align 8
  tail call void @_ZN15WiresharkDialogC2ER7QWidgetR11CaptureFile(ptr noundef align 8 dereferenceable_or_null(141) %0, ptr noundef align 8 dereferenceable(40) %1, ptr noundef align 8 dereferenceable(48) %2)
  store ptr getelementptr inbounds nuw inrange(-16, 496) (i8, ptr @_ZTV17Mtp3SummaryDialog, i64 16), ptr %0, align 8
  %5 = getelementptr inbounds nuw i8, ptr %0, i64 16
  store ptr getelementptr inbounds nuw inrange(-16, 64) (i8, ptr @_ZTV17Mtp3SummaryDialog, i64 528), ptr %5, align 8
  %6 = invoke noalias noundef dereferenceable_or_null(24) ptr @_Znwm(i64 noundef 24) #16
          to label %7 unwind label %19

7:                                                ; preds = %3
  %8 = getelementptr inbounds nuw i8, ptr %0, i64 144
  store ptr %6, ptr %8, align 8
  invoke void @_ZN20Ui_Mtp3SummaryDialog7setupUiEP7QDialog(ptr noundef align 8 dereferenceable_or_null(24) %6, ptr noundef %0)
          to label %9 unwind label %19

9:                                                ; preds = %7
  call void @llvm.lifetime.start.p0(i64 24, ptr nonnull %4) #17
  invoke void @_ZNK11QMetaObject2trEPKcS1_i(ptr dead_on_unwind nonnull writable sret(%class.QString) align 8 %4, ptr noundef nonnull align 8 dereferenceable_or_null(56) @_ZN17Mtp3SummaryDialog16staticMetaObjectE, ptr noundef nonnull @.str, ptr noundef null, i32 noundef -1)
          to label %_ZN17Mtp3SummaryDialog2trEPKcS1_i.exit unwind label %21

_ZN17Mtp3SummaryDialog2trEPKcS1_i.exit:           ; preds = %9
  invoke void @_ZN15WiresharkDialog17setWindowSubtitleERK7QString(ptr noundef align 8 dereferenceable_or_null(141) %0, ptr noundef nonnull align 8 dereferenceable(24) %4)
          to label %10 unwind label %23

10:                                               ; preds = %_ZN17Mtp3SummaryDialog2trEPKcS1_i.exit
  %11 = load ptr, ptr %4, align 8
  %.not.i.i.i = icmp eq ptr %11, null
  br i1 %.not.i.i.i, label %_ZN7QStringD2Ev.exit, label %_ZN17QArrayDataPointerIDsE5derefEv.exit.i.i

_ZN17QArrayDataPointerIDsE5derefEv.exit.i.i:      ; preds = %10
  %12 = atomicrmw sub ptr %11, i32 1 seq_cst, align 4
  %.not.i.i = icmp eq i32 %12, 1
  br i1 %.not.i.i, label %13, label %_ZN7QStringD2Ev.exit

13:                                               ; preds = %_ZN17QArrayDataPointerIDsE5derefEv.exit.i.i
  %14 = load ptr, ptr %4, align 8
  call void @_ZN10QArrayData10deallocateEPS_xx(ptr noundef %14, i64 noundef 2, i64 noundef 8) #17
  br label %_ZN7QStringD2Ev.exit

_ZN7QStringD2Ev.exit:                             ; preds = %10, %_ZN17QArrayDataPointerIDsE5derefEv.exit.i.i, %13
  call void @llvm.lifetime.end.p0(i64 24, ptr nonnull %4) #17
  %15 = load ptr, ptr %0, align 8
  %16 = getelementptr inbounds nuw i8, ptr %15, i64 464
  %17 = load ptr, ptr %16, align 8
  invoke void %17(ptr noundef align 8 dereferenceable_or_null(152) %0)
          to label %18 unwind label %19

18:                                               ; preds = %_ZN7QStringD2Ev.exit
  ret void

19:                                               ; preds = %_ZN7QStringD2Ev.exit, %7, %3
  %20 = landingpad { ptr, i32 }
          cleanup
  br label %29

21:                                               ; preds = %9
  %22 = landingpad { ptr, i32 }
          cleanup
  br label %_ZN7QStringD2Ev.exit12

23:                                               ; preds = %_ZN17Mtp3SummaryDialog2trEPKcS1_i.exit
  %24 = landingpad { ptr, i32 }
          cleanup
  %25 = load ptr, ptr %4, align 8
  %.not.i.i.i9 = icmp eq ptr %25, null
  br i1 %.not.i.i.i9, label %_ZN7QStringD2Ev.exit12, label %_ZN17QArrayDataPointerIDsE5derefEv.exit.i.i10

_ZN17QArrayDataPointerIDsE5derefEv.exit.i.i10:    ; preds = %23
  %26 = atomicrmw sub ptr %25, i32 1 seq_cst, align 4
  %.not.i.i11 = icmp eq i32 %26, 1
  br i1 %.not.i.i11, label %27, label %_ZN7QStringD2Ev.exit12

27:                                               ; preds = %_ZN17QArrayDataPointerIDsE5derefEv.exit.i.i10
  %28 = load ptr, ptr %4, align 8
  call void @_ZN10QArrayData10deallocateEPS_xx(ptr noundef %28, i64 noundef 2, i64 noundef 8) #17
  br label %_ZN7QStringD2Ev.exit12

_ZN7QStringD2Ev.exit12:                           ; preds = %27, %_ZN17QArrayDataPointerIDsE5derefEv.exit.i.i10, %23, %21
  %.pn = phi { ptr, i32 } [ %22, %21 ], [ %24, %23 ], [ %24, %_ZN17QArrayDataPointerIDsE5derefEv.exit.i.i10 ], [ %24, %27 ]
  call void @llvm.lifetime.end.p0(i64 24, ptr nonnull %4) #17
  br label %29

29:                                               ; preds = %_ZN7QStringD2Ev.exit12, %19
  %.pn7 = phi { ptr, i32 } [ %20, %19 ], [ %.pn, %_ZN7QStringD2Ev.exit12 ]
  call void @_ZN15WiresharkDialogD2Ev(ptr noundef align 8 dereferenceable_or_null(141) %0) #17
  resume { ptr, i32 } %.pn7
}